; Function Attrs: mustprogress nounwind uwtable
define dso_local void @_ZN5clang6driver9ToolChain6concatB5cxx11EN4llvm9StringRefERKNS2_5TwineES6_S6_S6_(ptr dead_on_unwind noalias writable sret(%"class.std::__cxx11::basic_string") align 8 %0, ptr %1, i64 %2, ptr noundef nonnull align 8 dereferenceable(34) %3, ptr noundef nonnull align 8 dereferenceable(34) %4, ptr noundef nonnull align 8 dereferenceable(34) %5, ptr noundef nonnull align 8 dereferenceable(34) %6) local_unnamed_addr #0 align 2 {
  %8 = alloca %"class.std::allocator", align 1
  %9 = alloca %"class.llvm::SmallString.91", align 8
  %10 = getelementptr inbounds i8, ptr %1, i64 %2
  %11 = getelementptr inbounds i8, ptr %9, i64 24
  call void @_ZN4llvm15SmallVectorBaseImEC2EPvm(ptr noundef nonnull align 8 dereferenceable(24) %9, ptr noundef nonnull %11, i64 noundef 128) #25
  call void @_ZN4llvm15SmallVectorImplIcE6appendIPKcvEEvT_S5_(ptr noundef nonnull align 8 dereferenceable(24) %9, ptr noundef %1, ptr noundef %10)
  call void @_ZN4llvm3sys4path6appendERNS_15SmallVectorImplIcEENS1_5StyleERKNS_5TwineES8_S8_S8_(ptr noundef nonnull align 8 dereferenceable(24) %9, i32 noundef 1, ptr noundef nonnull align 8 dereferenceable(34) %3, ptr noundef nonnull align 8 dereferenceable(34) %4, ptr noundef nonnull align 8 dereferenceable(34) %5, ptr noundef nonnull align 8 dereferenceable(34) %6) #25
  call void @llvm.lifetime.start.p0(i64 1, ptr nonnull %8)
  %12 = load ptr, ptr %9, align 8, !noalias !267
  %13 = call noundef i64 @_ZNK4llvm15SmallVectorBaseImE4sizeEv(ptr noundef nonnull align 8 dereferenceable(24) %9) #25, !noalias !267
  call void @_ZNSaIcEC1Ev(ptr noundef nonnull align 1 dereferenceable(1) %8) #25, !noalias !267
  call void @_ZNSt7__cxx1112basic_stringIcSt11char_traitsIcESaIcEEC1EPKcmRKS3_(ptr noundef nonnull align 8 dereferenceable(32) %0, ptr noundef %12, i64 noundef %13, ptr noundef nonnull align 1 dereferenceable(1) %8) #25
  call void @_ZNSaIcED1Ev(ptr noundef nonnull align 1 dereferenceable(1) %8) #25
  call void @llvm.lifetime.end.p0(i64 1, ptr nonnull %8)
  %14 = call noundef i64 @_ZNK4llvm15SmallVectorBaseImE4sizeEv(ptr noundef nonnull align 8 dereferenceable(24) %9) #25
  %15 = load ptr, ptr %9, align 8
  %16 = icmp eq ptr %15, %11
  br i1 %16, label %_ZN4llvm11SmallStringILj128EED2Ev.exit, label %17

17:                                               ; preds = %7
  call void @free(ptr noundef %15) #25
  br label %_ZN4llvm11SmallStringILj128EED2Ev.exit

_ZN4llvm11SmallStringILj128EED2Ev.exit:           ; preds = %7, %17
  ret void
}